target datalayout = "e-m:e-p270:32:32-p271:32:32-p272:64:64-i64:64-i128:128-f80:128-n8:16:32:64-S128"
target triple = "x86_64-pc-linux-gnu"

%"class.icu_77::CollationWeights" = type { i32, [5 x i32], [5 x i32], [7 x %"struct.icu_77::CollationWeights::WeightRange"], i32, i32 }
%"struct.icu_77::CollationWeights::WeightRange" = type { i32, i32, i32, i32 }

; Function Attrs: mustprogress nounwind uwtable
define void @_ZN6icu_7716CollationWeightsC2Ev(ptr noundef nonnull align 4 dereferenceable(164) %0) unnamed_addr #0 align 2 {
  %2 = alloca ptr, align 8
  %3 = alloca i32, align 4
  store ptr %0, ptr %2, align 8, !tbaa !3
  %4 = load ptr, ptr %2, align 8
  %5 = getelementptr inbounds nuw %"class.icu_77::CollationWeights", ptr %4, i32 0, i32 0
  store i32 0, ptr %5, align 4, !tbaa !8
  %6 = getelementptr inbounds nuw %"class.icu_77::CollationWeights", ptr %4, i32 0, i32 4
  store i32 0, ptr %6, align 4, !tbaa !11
  %7 = getelementptr inbounds nuw %"class.icu_77::CollationWeights", ptr %4, i32 0, i32 5
  store i32 0, ptr %7, align 4, !tbaa !12
  call void @llvm.lifetime.start.p0(i64 4, ptr %3) #8
  store i32 0, ptr %3, align 4, !tbaa !13
  br label %8

8:                                                ; preds = %21, %1
  %9 = load i32, ptr %3, align 4, !tbaa !13
  %10 = icmp slt i32 %9, 5
  br i1 %10, label %12, label %11

11:                                               ; preds = %8
  call void @llvm.lifetime.end.p0(i64 4, ptr %3) #8
  br label %24

12:                                               ; preds = %8
  %13 = getelementptr inbounds nuw %"class.icu_77::CollationWeights", ptr %4, i32 0, i32 2
  %14 = load i32, ptr %3, align 4, !tbaa !13
  %15 = sext i32 %14 to i64
  %16 = getelementptr inbounds [5 x i32], ptr %13, i64 0, i64 %15
  store i32 0, ptr %16, align 4, !tbaa !13
  %17 = getelementptr inbounds nuw %"class.icu_77::CollationWeights", ptr %4, i32 0, i32 1
  %18 = load i32, ptr %3, align 4, !tbaa !13
  %19 = sext i32 %18 to i64
  %20 = getelementptr inbounds [5 x i32], ptr %17, i64 0, i64 %19
  store i32 0, ptr %20, align 4, !tbaa !13
  br label %21

21:                                               ; preds = %12
  %22 = load i32, ptr %3, align 4, !tbaa !13
  %23 = add nsw i32 %22, 1
  store i32 %23, ptr %3, align 4, !tbaa !13
  br label %8, !llvm.loop !14

24:                                               ; preds = %11
  ret void
}