; Function Attrs: mustprogress nofree norecurse nosync nounwind memory(argmem: write) uwtable
define void @_ZN6icu_7716CollationWeightsC2Ev(ptr noundef nonnull writeonly align 4 captures(none) dereferenceable(164) initializes((0, 24), (156, 164)) %0) unnamed_addr #0 align 2 {
  %2 = getelementptr inbounds nuw i8, ptr %0, i64 156
  store i32 0, ptr %2, align 4, !tbaa !3
  %3 = getelementptr inbounds nuw i8, ptr %0, i64 160
  store i32 0, ptr %3, align 4, !tbaa !8
  %4 = getelementptr inbounds nuw i8, ptr %0, i64 24
  tail call void @llvm.memset.p0.i64(ptr noundef nonnull align 4 dereferenceable(24) %0, i8 0, i64 24, i1 false)
  br label %6

5:                                                ; preds = %6
  ret void

6:                                                ; preds = %1, %6
  %indvars.iv = phi i64 [ 0, %1 ], [ %indvars.iv.next, %6 ]
  %7 = getelementptr inbounds nuw [5 x i32], ptr %4, i64 0, i64 %indvars.iv
  store i32 0, ptr %7, align 4, !tbaa !9
  %indvars.iv.next = add nuw nsw i64 %indvars.iv, 1
  %exitcond.not = icmp eq i64 %indvars.iv.next, 5
  br i1 %exitcond.not, label %5, label %6, !llvm.loop !10
}